; Function Attrs: nounwind uwtable
define internal ptr @paramspec_args(ptr noundef %0, ptr readnone captures(none) %1) #0 {
  %3 = tail call align 8 ptr @llvm.threadlocal.address.p0(ptr align 8 @_Py_tss_tstate)
  %4 = load ptr, ptr %3, align 8, !tbaa !28
  %5 = getelementptr inbounds nuw i8, ptr %4, i64 16
  %6 = load ptr, ptr %5, align 8, !tbaa !39
  %7 = getelementptr inbounds nuw i8, ptr %6, i64 224528
  %8 = load ptr, ptr %7, align 8, !tbaa !147
  %9 = tail call ptr @_PyObject_GC_New(ptr noundef %8) #8
  %10 = icmp eq ptr %9, null
  br i1 %10, label %paramspecattr_new.exit, label %11

11:                                               ; preds = %2
  %12 = load i32, ptr %0, align 8, !tbaa !27
  %13 = icmp slt i32 %12, 0
  br i1 %13, label %_Py_NewRef.exit.i, label %14

14:                                               ; preds = %11
  %15 = add nuw i32 %12, 1
  store i32 %15, ptr %0, align 8, !tbaa !27
  br label %_Py_NewRef.exit.i

_Py_NewRef.exit.i:                                ; preds = %14, %11
  %16 = getelementptr inbounds nuw i8, ptr %9, i64 16
  store ptr %0, ptr %16, align 8, !tbaa !151
  %17 = getelementptr i8, ptr %9, i64 -16
  %18 = load ptr, ptr %3, align 8, !tbaa !28
  %19 = getelementptr inbounds nuw i8, ptr %18, i64 16
  %20 = load ptr, ptr %19, align 8, !tbaa !39
  %21 = getelementptr inbounds nuw i8, ptr %20, i64 7424
  %22 = getelementptr inbounds nuw i8, ptr %20, i64 7432
  %23 = load i64, ptr %22, align 8, !tbaa !113
  %24 = inttoptr i64 %23 to ptr
  %25 = ptrtoint ptr %17 to i64
  %26 = load i64, ptr %24, align 8, !tbaa !114
  %27 = and i64 %26, 3
  %28 = or i64 %27, %25
  store i64 %28, ptr %24, align 8, !tbaa !114
  %29 = getelementptr i8, ptr %9, i64 -8
  %30 = load i64, ptr %29, align 8, !tbaa !113
  %31 = and i64 %30, 3
  %32 = or i64 %31, %23
  store i64 %32, ptr %29, align 8, !tbaa !113
  %33 = getelementptr inbounds nuw i8, ptr %20, i64 7632
  %34 = load i32, ptr %33, align 8, !tbaa !115
  %35 = xor i32 %34, 1
  %36 = sext i32 %35 to i64
  %37 = ptrtoint ptr %21 to i64
  %38 = or i64 %36, %37
  store i64 %38, ptr %17, align 8, !tbaa !114
  store i64 %25, ptr %22, align 8, !tbaa !113
  br label %paramspecattr_new.exit

paramspecattr_new.exit:                           ; preds = %2, %_Py_NewRef.exit.i
  ret ptr %9
}